target datalayout = "e-m:e-p270:32:32-p271:32:32-p272:64:64-i64:64-i128:128-f80:128-n8:16:32:64-S128"
target triple = "x86_64-pc-linux-gnu"

%struct.Aig_Man_t_ = type { ptr, ptr, ptr, ptr, ptr, ptr, ptr, %struct.Aig_Obj_t_, i32, i32, i32, i32, i32, i32, [7 x i32], i32, ptr, i32, ptr, i32, ptr, i32, i32, i32, ptr, i32, i32, i32, i32, i32, ptr, ptr, i32, ptr, ptr, i32, ptr, ptr, i32, i32, i32, ptr, ptr, ptr, ptr, ptr, ptr, ptr, ptr, ptr, ptr, ptr, ptr, ptr, ptr, i32, ptr, ptr, ptr, ptr, i32, i64, i64, i64, ptr, ptr }
%struct.Aig_Obj_t_ = type { %union.anon, ptr, ptr, i64, i32, i32, %union.anon.0 }
%union.anon = type { ptr }
%union.anon.0 = type { ptr }
%struct.Cnf_Dat_t_ = type { ptr, i32, i32, i32, ptr, ptr, ptr, ptr, ptr, ptr }
%struct.Vec_Ptr_t_ = type { i32, i32, ptr }

; Function Attrs: inlinehint nounwind uwtable
define internal i32 @Vec_PtrSize(ptr noundef %0) #5 {
  %2 = alloca ptr, align 8
  store ptr %0, ptr %2, align 8, !tbaa !50
  %3 = load ptr, ptr %2, align 8, !tbaa !50
  %4 = getelementptr inbounds nuw %struct.Vec_Ptr_t_, ptr %3, i32 0, i32 1
  %5 = load i32, ptr %4, align 4, !tbaa !51
  ret i32 %5
}

; Function Attrs: inlinehint nounwind uwtable
define internal i32 @Aig_ManObjNumMax(ptr noundef %0) #5 {
  %2 = alloca ptr, align 8
  store ptr %0, ptr %2, align 8, !tbaa !34
  %3 = load ptr, ptr %2, align 8, !tbaa !34
  %4 = getelementptr inbounds nuw %struct.Aig_Man_t_, ptr %3, i32 0, i32 4
  %5 = load ptr, ptr %4, align 8, !tbaa !60
  %6 = call i32 @Vec_PtrSize(ptr noundef %5)
  ret i32 %6
}

; Function Attrs: nounwind uwtable
define ptr @Cnf_DataAlloc(ptr noundef %0, i32 noundef %1, i32 noundef %2, i32 noundef %3) #0 {
  %5 = alloca ptr, align 8
  %6 = alloca i32, align 4
  %7 = alloca i32, align 4
  %8 = alloca i32, align 4
  %9 = alloca ptr, align 8
  store ptr %0, ptr %5, align 8, !tbaa !34
  store i32 %1, ptr %6, align 4, !tbaa !20
  store i32 %2, ptr %7, align 4, !tbaa !20
  store i32 %3, ptr %8, align 4, !tbaa !20
  call void @llvm.lifetime.start.p0(i64 8, ptr %9) #11
  %10 = call noalias ptr @calloc(i64 noundef 1, i64 noundef 72) #13
  store ptr %10, ptr %9, align 8, !tbaa !32
  %11 = load ptr, ptr %5, align 8, !tbaa !34
  %12 = load ptr, ptr %9, align 8, !tbaa !32
  %13 = getelementptr inbounds nuw %struct.Cnf_Dat_t_, ptr %12, i32 0, i32 0
  store ptr %11, ptr %13, align 8, !tbaa !55
  %14 = load i32, ptr %6, align 4, !tbaa !20
  %15 = load ptr, ptr %9, align 8, !tbaa !32
  %16 = getelementptr inbounds nuw %struct.Cnf_Dat_t_, ptr %15, i32 0, i32 1
  store i32 %14, ptr %16, align 8, !tbaa !56
  %17 = load i32, ptr %7, align 4, !tbaa !20
  %18 = load ptr, ptr %9, align 8, !tbaa !32
  %19 = getelementptr inbounds nuw %struct.Cnf_Dat_t_, ptr %18, i32 0, i32 3
  store i32 %17, ptr %19, align 8, !tbaa !57
  %20 = load i32, ptr %8, align 4, !tbaa !20
  %21 = load ptr, ptr %9, align 8, !tbaa !32
  %22 = getelementptr inbounds nuw %struct.Cnf_Dat_t_, ptr %21, i32 0, i32 2
  store i32 %20, ptr %22, align 4, !tbaa !58
  %23 = load i32, ptr %7, align 4, !tbaa !20
  %24 = add nsw i32 %23, 1
  %25 = sext i32 %24 to i64
  %26 = mul i64 8, %25
  %27 = call noalias ptr @malloc(i64 noundef %26) #12
  %28 = load ptr, ptr %9, align 8, !tbaa !32
  %29 = getelementptr inbounds nuw %struct.Cnf_Dat_t_, ptr %28, i32 0, i32 4
  store ptr %27, ptr %29, align 8, !tbaa !59
  %30 = load i32, ptr %8, align 4, !tbaa !20
  %31 = sext i32 %30 to i64
  %32 = mul i64 4, %31
  %33 = call noalias ptr @malloc(i64 noundef %32) #12
  %34 = load ptr, ptr %9, align 8, !tbaa !32
  %35 = getelementptr inbounds nuw %struct.Cnf_Dat_t_, ptr %34, i32 0, i32 4
  %36 = load ptr, ptr %35, align 8, !tbaa !59
  %37 = getelementptr inbounds ptr, ptr %36, i64 0
  store ptr %33, ptr %37, align 8, !tbaa !18
  %38 = load ptr, ptr %9, align 8, !tbaa !32
  %39 = getelementptr inbounds nuw %struct.Cnf_Dat_t_, ptr %38, i32 0, i32 4
  %40 = load ptr, ptr %39, align 8, !tbaa !59
  %41 = getelementptr inbounds ptr, ptr %40, i64 0
  %42 = load ptr, ptr %41, align 8, !tbaa !18
  %43 = load i32, ptr %8, align 4, !tbaa !20
  %44 = sext i32 %43 to i64
  %45 = getelementptr inbounds i32, ptr %42, i64 %44
  %46 = load ptr, ptr %9, align 8, !tbaa !32
  %47 = getelementptr inbounds nuw %struct.Cnf_Dat_t_, ptr %46, i32 0, i32 4
  %48 = load ptr, ptr %47, align 8, !tbaa !59
  %49 = load i32, ptr %7, align 4, !tbaa !20
  %50 = sext i32 %49 to i64
  %51 = getelementptr inbounds ptr, ptr %48, i64 %50
  store ptr %45, ptr %51, align 8, !tbaa !18
  %52 = load ptr, ptr %9, align 8, !tbaa !32
  %53 = getelementptr inbounds nuw %struct.Cnf_Dat_t_, ptr %52, i32 0, i32 5
  %54 = load ptr, ptr %53, align 8, !tbaa !45
  %55 = icmp ne ptr %54, null
  br i1 %55, label %56, label %68

56:                                               ; preds = %4
  %57 = load ptr, ptr %5, align 8, !tbaa !34
  %58 = call i32 @Aig_ManObjNumMax(ptr noundef %57)
  %59 = sext i32 %58 to i64
  %60 = mul i64 4, %59
  %61 = call noalias ptr @malloc(i64 noundef %60) #12
  %62 = load ptr, ptr %5, align 8, !tbaa !34
  %63 = call i32 @Aig_ManObjNumMax(ptr noundef %62)
  %64 = sext i32 %63 to i64
  %65 = mul i64 4, %64
  call void @llvm.memset.p0.i64(ptr align 1 %61, i8 -1, i64 %65, i1 false)
  %66 = load ptr, ptr %9, align 8, !tbaa !32
  %67 = getelementptr inbounds nuw %struct.Cnf_Dat_t_, ptr %66, i32 0, i32 5
  store ptr %61, ptr %67, align 8, !tbaa !45
  br label %68

68:                                               ; preds = %56, %4
  %69 = load ptr, ptr %9, align 8, !tbaa !32
  call void @llvm.lifetime.end.p0(i64 8, ptr %9) #11
  ret ptr %69
}

; Function Attrs: nounwind uwtable
define ptr @Cnf_DataDupCof(ptr noundef %0, i32 noundef %1) #0 {
  %3 = alloca ptr, align 8
  %4 = alloca i32, align 4
  %5 = alloca ptr, align 8
  %6 = alloca i32, align 4
  store ptr %0, ptr %3, align 8, !tbaa !32
  store i32 %1, ptr %4, align 4, !tbaa !20
  call void @llvm.lifetime.start.p0(i64 8, ptr %5) #11
  call void @llvm.lifetime.start.p0(i64 4, ptr %6) #11
  %7 = load ptr, ptr %3, align 8, !tbaa !32
  %8 = getelementptr inbounds nuw %struct.Cnf_Dat_t_, ptr %7, i32 0, i32 0
  %9 = load ptr, ptr %8, align 8, !tbaa !55
  %10 = load ptr, ptr %3, align 8, !tbaa !32
  %11 = getelementptr inbounds nuw %struct.Cnf_Dat_t_, ptr %10, i32 0, i32 1
  %12 = load i32, ptr %11, align 8, !tbaa !56
  %13 = load ptr, ptr %3, align 8, !tbaa !32
  %14 = getelementptr inbounds nuw %struct.Cnf_Dat_t_, ptr %13, i32 0, i32 3
  %15 = load i32, ptr %14, align 8, !tbaa !57
  %16 = add nsw i32 %15, 1
  %17 = load ptr, ptr %3, align 8, !tbaa !32
  %18 = getelementptr inbounds nuw %struct.Cnf_Dat_t_, ptr %17, i32 0, i32 2
  %19 = load i32, ptr %18, align 4, !tbaa !58
  %20 = add nsw i32 %19, 1
  %21 = call ptr @Cnf_DataAlloc(ptr noundef %9, i32 noundef %12, i32 noundef %16, i32 noundef %20)
  store ptr %21, ptr %5, align 8, !tbaa !32
  %22 = load ptr, ptr %5, align 8, !tbaa !32
  %23 = getelementptr inbounds nuw %struct.Cnf_Dat_t_, ptr %22, i32 0, i32 4
  %24 = load ptr, ptr %23, align 8, !tbaa !59
  %25 = getelementptr inbounds ptr, ptr %24, i64 0
  %26 = load ptr, ptr %25, align 8, !tbaa !18
  %27 = load ptr, ptr %3, align 8, !tbaa !32
  %28 = getelementptr inbounds nuw %struct.Cnf_Dat_t_, ptr %27, i32 0, i32 4
  %29 = load ptr, ptr %28, align 8, !tbaa !59
  %30 = getelementptr inbounds ptr, ptr %29, i64 0
  %31 = load ptr, ptr %30, align 8, !tbaa !18
  %32 = load ptr, ptr %3, align 8, !tbaa !32
  %33 = getelementptr inbounds nuw %struct.Cnf_Dat_t_, ptr %32, i32 0, i32 2
  %34 = load i32, ptr %33, align 4, !tbaa !58
  %35 = sext i32 %34 to i64
  %36 = mul i64 4, %35
  call void @llvm.memcpy.p0.p0.i64(ptr align 4 %26, ptr align 4 %31, i64 %36, i1 false)
  %37 = load ptr, ptr %5, align 8, !tbaa !32
  %38 = getelementptr inbounds nuw %struct.Cnf_Dat_t_, ptr %37, i32 0, i32 5
  %39 = load ptr, ptr %38, align 8, !tbaa !45
  %40 = icmp ne ptr %39, null
  br i1 %40, label %41, label %54

41:                                               ; preds = %2
  %42 = load ptr, ptr %5, align 8, !tbaa !32
  %43 = getelementptr inbounds nuw %struct.Cnf_Dat_t_, ptr %42, i32 0, i32 5
  %44 = load ptr, ptr %43, align 8, !tbaa !45
  %45 = load ptr, ptr %3, align 8, !tbaa !32
  %46 = getelementptr inbounds nuw %struct.Cnf_Dat_t_, ptr %45, i32 0, i32 5
  %47 = load ptr, ptr %46, align 8, !tbaa !45
  %48 = load ptr, ptr %3, align 8, !tbaa !32
  %49 = getelementptr inbounds nuw %struct.Cnf_Dat_t_, ptr %48, i32 0, i32 0
  %50 = load ptr, ptr %49, align 8, !tbaa !55
  %51 = call i32 @Aig_ManObjNumMax(ptr noundef %50)
  %52 = sext i32 %51 to i64
  %53 = mul i64 4, %52
  call void @llvm.memcpy.p0.p0.i64(ptr align 4 %44, ptr align 4 %47, i64 %53, i1 false)
  br label %54

54:                                               ; preds = %41, %2
  store i32 1, ptr %6, align 4, !tbaa !20
  br label %55

55:                                               ; preds = %90, %54
  %56 = load i32, ptr %6, align 4, !tbaa !20
  %57 = load ptr, ptr %3, align 8, !tbaa !32
  %58 = getelementptr inbounds nuw %struct.Cnf_Dat_t_, ptr %57, i32 0, i32 3
  %59 = load i32, ptr %58, align 8, !tbaa !57
  %60 = icmp slt i32 %56, %59
  br i1 %60, label %61, label %93

61:                                               ; preds = %55
  %62 = load ptr, ptr %5, align 8, !tbaa !32
  %63 = getelementptr inbounds nuw %struct.Cnf_Dat_t_, ptr %62, i32 0, i32 4
  %64 = load ptr, ptr %63, align 8, !tbaa !59
  %65 = getelementptr inbounds ptr, ptr %64, i64 0
  %66 = load ptr, ptr %65, align 8, !tbaa !18
  %67 = load ptr, ptr %3, align 8, !tbaa !32
  %68 = getelementptr inbounds nuw %struct.Cnf_Dat_t_, ptr %67, i32 0, i32 4
  %69 = load ptr, ptr %68, align 8, !tbaa !59
  %70 = load i32, ptr %6, align 4, !tbaa !20
  %71 = sext i32 %70 to i64
  %72 = getelementptr inbounds ptr, ptr %69, i64 %71
  %73 = load ptr, ptr %72, align 8, !tbaa !18
  %74 = load ptr, ptr %3, align 8, !tbaa !32
  %75 = getelementptr inbounds nuw %struct.Cnf_Dat_t_, ptr %74, i32 0, i32 4
  %76 = load ptr, ptr %75, align 8, !tbaa !59
  %77 = getelementptr inbounds ptr, ptr %76, i64 0
  %78 = load ptr, ptr %77, align 8, !tbaa !18
  %79 = ptrtoint ptr %73 to i64
  %80 = ptrtoint ptr %78 to i64
  %81 = sub i64 %79, %80
  %82 = sdiv exact i64 %81, 4
  %83 = getelementptr inbounds i32, ptr %66, i64 %82
  %84 = load ptr, ptr %5, align 8, !tbaa !32
  %85 = getelementptr inbounds nuw %struct.Cnf_Dat_t_, ptr %84, i32 0, i32 4
  %86 = load ptr, ptr %85, align 8, !tbaa !59
  %87 = load i32, ptr %6, align 4, !tbaa !20
  %88 = sext i32 %87 to i64
  %89 = getelementptr inbounds ptr, ptr %86, i64 %88
  store ptr %83, ptr %89, align 8, !tbaa !18
  br label %90

90:                                               ; preds = %61
  %91 = load i32, ptr %6, align 4, !tbaa !20
  %92 = add nsw i32 %91, 1
  store i32 %92, ptr %6, align 4, !tbaa !20
  br label %55, !llvm.loop !62

93:                                               ; preds = %55
  %94 = load ptr, ptr %5, align 8, !tbaa !32
  %95 = getelementptr inbounds nuw %struct.Cnf_Dat_t_, ptr %94, i32 0, i32 4
  %96 = load ptr, ptr %95, align 8, !tbaa !59
  %97 = getelementptr inbounds ptr, ptr %96, i64 0
  %98 = load ptr, ptr %97, align 8, !tbaa !18
  %99 = load ptr, ptr %3, align 8, !tbaa !32
  %100 = getelementptr inbounds nuw %struct.Cnf_Dat_t_, ptr %99, i32 0, i32 2
  %101 = load i32, ptr %100, align 4, !tbaa !58
  %102 = sext i32 %101 to i64
  %103 = getelementptr inbounds i32, ptr %98, i64 %102
  %104 = load ptr, ptr %5, align 8, !tbaa !32
  %105 = getelementptr inbounds nuw %struct.Cnf_Dat_t_, ptr %104, i32 0, i32 4
  %106 = load ptr, ptr %105, align 8, !tbaa !59
  %107 = load ptr, ptr %3, align 8, !tbaa !32
  %108 = getelementptr inbounds nuw %struct.Cnf_Dat_t_, ptr %107, i32 0, i32 3
  %109 = load i32, ptr %108, align 8, !tbaa !57
  %110 = sext i32 %109 to i64
  %111 = getelementptr inbounds ptr, ptr %106, i64 %110
  store ptr %103, ptr %111, align 8, !tbaa !18
  %112 = load i32, ptr %4, align 4, !tbaa !20
  %113 = load ptr, ptr %5, align 8, !tbaa !32
  %114 = getelementptr inbounds nuw %struct.Cnf_Dat_t_, ptr %113, i32 0, i32 4
  %115 = load ptr, ptr %114, align 8, !tbaa !59
  %116 = load ptr, ptr %3, align 8, !tbaa !32
  %117 = getelementptr inbounds nuw %struct.Cnf_Dat_t_, ptr %116, i32 0, i32 3
  %118 = load i32, ptr %117, align 8, !tbaa !57
  %119 = sext i32 %118 to i64
  %120 = getelementptr inbounds ptr, ptr %115, i64 %119
  %121 = load ptr, ptr %120, align 8, !tbaa !18
  %122 = getelementptr inbounds i32, ptr %121, i64 0
  store i32 %112, ptr %122, align 4, !tbaa !20
  %123 = load ptr, ptr %5, align 8, !tbaa !32
  call void @llvm.lifetime.end.p0(i64 4, ptr %6) #11
  call void @llvm.lifetime.end.p0(i64 8, ptr %5) #11
  ret ptr %123
}