; Function Attrs: nofree nounwind uwtable
define noalias noundef ptr @Cnf_DataDupCof(ptr noundef readonly captures(none) %0, i32 noundef %1) local_unnamed_addr #7 {
  %3 = load ptr, ptr %0, align 8, !tbaa !47
  %4 = getelementptr inbounds nuw i8, ptr %0, i64 8
  %5 = load i32, ptr %4, align 8, !tbaa !48
  %6 = getelementptr inbounds nuw i8, ptr %0, i64 16
  %7 = load i32, ptr %6, align 8, !tbaa !49
  %8 = add nsw i32 %7, 1
  %9 = getelementptr inbounds nuw i8, ptr %0, i64 12
  %10 = load i32, ptr %9, align 4, !tbaa !50
  %11 = add nsw i32 %10, 1
  %12 = tail call noalias dereferenceable_or_null(72) ptr @calloc(i64 noundef 1, i64 noundef 72) #19
  store ptr %3, ptr %12, align 8, !tbaa !47
  %13 = getelementptr inbounds nuw i8, ptr %12, i64 8
  store i32 %5, ptr %13, align 8, !tbaa !48
  %14 = getelementptr inbounds nuw i8, ptr %12, i64 16
  store i32 %8, ptr %14, align 8, !tbaa !49
  %15 = getelementptr inbounds nuw i8, ptr %12, i64 12
  store i32 %11, ptr %15, align 4, !tbaa !50
  %16 = add nsw i32 %7, 2
  %17 = sext i32 %16 to i64
  %18 = shl nsw i64 %17, 3
  %19 = tail call noalias ptr @malloc(i64 noundef %18) #17
  %20 = getelementptr inbounds nuw i8, ptr %12, i64 24
  store ptr %19, ptr %20, align 8, !tbaa !51
  %21 = sext i32 %11 to i64
  %22 = shl nsw i64 %21, 2
  %23 = tail call noalias ptr @malloc(i64 noundef %22) #17
  store ptr %23, ptr %19, align 8, !tbaa !16
  %24 = getelementptr inbounds i32, ptr %23, i64 %21
  %25 = sext i32 %8 to i64
  %26 = getelementptr inbounds ptr, ptr %19, i64 %25
  store ptr %24, ptr %26, align 8, !tbaa !16
  %27 = load ptr, ptr %19, align 8, !tbaa !16
  %28 = getelementptr inbounds nuw i8, ptr %0, i64 24
  %29 = load ptr, ptr %28, align 8, !tbaa !51
  %30 = load ptr, ptr %29, align 8, !tbaa !16
  %31 = sext i32 %10 to i64
  %32 = shl nsw i64 %31, 2
  tail call void @llvm.memcpy.p0.p0.i64(ptr align 4 %27, ptr align 4 %30, i64 %32, i1 false)
  %33 = load i32, ptr %6, align 8, !tbaa !49
  %34 = icmp sgt i32 %33, 1
  %.pre = load ptr, ptr %19, align 8, !tbaa !16
  br i1 %34, label %.lr.ph, label %._crit_edge

.lr.ph:                                           ; preds = %2
  %35 = load ptr, ptr %28, align 8, !tbaa !51
  %wide.trip.count = zext nneg i32 %33 to i64
  br label %36

36:                                               ; preds = %.lr.ph, %36
  %indvars.iv = phi i64 [ 1, %.lr.ph ], [ %indvars.iv.next, %36 ]
  %37 = getelementptr inbounds nuw ptr, ptr %35, i64 %indvars.iv
  %38 = load ptr, ptr %37, align 8, !tbaa !16
  %39 = load ptr, ptr %35, align 8, !tbaa !16
  %40 = ptrtoint ptr %38 to i64
  %41 = ptrtoint ptr %39 to i64
  %42 = sub i64 %40, %41
  %43 = getelementptr inbounds i8, ptr %.pre, i64 %42
  %44 = getelementptr inbounds nuw ptr, ptr %19, i64 %indvars.iv
  store ptr %43, ptr %44, align 8, !tbaa !16
  %indvars.iv.next = add nuw nsw i64 %indvars.iv, 1
  %exitcond.not = icmp eq i64 %indvars.iv.next, %wide.trip.count
  br i1 %exitcond.not, label %._crit_edge, label %36, !llvm.loop !54

._crit_edge:                                      ; preds = %36, %2
  %45 = load i32, ptr %9, align 4, !tbaa !50
  %46 = sext i32 %45 to i64
  %47 = getelementptr inbounds i32, ptr %.pre, i64 %46
  %48 = sext i32 %33 to i64
  %49 = getelementptr inbounds ptr, ptr %19, i64 %48
  store ptr %47, ptr %49, align 8, !tbaa !16
  store i32 %1, ptr %47, align 4, !tbaa !28
  ret ptr %12
}